; Function Attrs: nofree norecurse nosync nounwind memory(read, inaccessiblemem: none) uwtable
define internal i32 @_archive_write_filter_count(ptr noundef readonly captures(none) %0) #6 {
  %2 = getelementptr inbounds nuw i8, ptr %0, i64 232
  %.056 = load ptr, ptr %2, align 8, !tbaa !43
  %.not7 = icmp eq ptr %.056, null
  br i1 %.not7, label %._crit_edge, label %.lr.ph

.lr.ph:                                           ; preds = %1, %.lr.ph
  %.059 = phi ptr [ %.05, %.lr.ph ], [ %.056, %1 ]
  %.08 = phi i32 [ %3, %.lr.ph ], [ 0, %1 ]
  %3 = add nuw nsw i32 %.08, 1
  %4 = getelementptr inbounds nuw i8, ptr %.059, i64 16
  %.05 = load ptr, ptr %4, align 8, !tbaa !43
  %.not = icmp eq ptr %.05, null
  br i1 %.not, label %._crit_edge, label %.lr.ph, !llvm.loop !68

._crit_edge:                                      ; preds = %.lr.ph, %1
  %.0.lcssa = phi i32 [ 0, %1 ], [ %3, %.lr.ph ]
  ret i32 %.0.lcssa
}